target datalayout = "e-m:e-p270:32:32-p271:32:32-p272:64:64-i64:64-i128:128-f80:128-n8:16:32:64-S128"
target triple = "x86_64-pc-linux-gnu"

%class.QString = type { %struct.QArrayDataPointer }
%struct.QArrayDataPointer = type { ptr, ptr, i64 }
%class.QPaintDevice.base = type <{ ptr, i16 }>
%class.TCPStreamDialog = type { %class.GeometryStateDialog, ptr, ptr, %class.QMultiMap, double, i8, %class.QMap, double, i8, %struct.tcp_graph, ptr, %class.QString, ptr, ptr, ptr, ptr, ptr, ptr, ptr, ptr, ptr, ptr, ptr, ptr, ptr, ptr, %class.QRectF, i32, [4 x i8], %class.QTransform, i8, ptr, %class.QPoint, %class.QMenu, %"class.TCPStreamDialog::GraphUpdater", i32, i32, i32, double }
%class.GeometryStateDialog = type { %class.QDialog, %class.QString }
%class.QDialog = type { %class.QWidget }
%class.QWidget = type { %class.QObject, %class.QPaintDevice.base, ptr }
%class.QObject = type { ptr, %class.QScopedPointer }
%class.QScopedPointer = type { ptr }
%class.QMultiMap = type { %"class.QtPrivate::QExplicitlySharedDataPointerV2" }
%"class.QtPrivate::QExplicitlySharedDataPointerV2" = type { ptr }
%class.QMap = type { %"class.QtPrivate::QExplicitlySharedDataPointerV2.5" }
%"class.QtPrivate::QExplicitlySharedDataPointerV2.5" = type { ptr }
%struct.tcp_graph = type { i32, %struct._address, i16, %struct._address, i16, i32, ptr }
%struct._address = type { i32, i32, ptr, ptr }
%class.QRectF = type { double, double, double, double }
%class.QTransform = type <{ [3 x [3 x double]], i16, [6 x i8] }>
%class.QPoint = type { i32, i32 }
%class.QMenu = type { %class.QWidget }
%"class.TCPStreamDialog::GraphUpdater" = type <{ ptr, ptr, i8, [7 x i8] }>
%struct.segment = type { ptr, i32, i32, i32, i32, i32, i16, i32, i32, i16, i16, %struct._address, %struct._address, i8, [4 x i32], [4 x i32] }

; Function Attrs: mustprogress uwtable
define noundef zeroext i1 @_ZN15TCPStreamDialog14compareHeadersEP7segment(ptr noundef nonnull align 8 dereferenceable(584) %0, ptr noundef %1) #1 align 2 {
  %3 = alloca ptr, align 8
  %4 = alloca ptr, align 8
  store ptr %0, ptr %3, align 8
  store ptr %1, ptr %4, align 8
  %5 = load ptr, ptr %3, align 8
  %6 = getelementptr inbounds %class.TCPStreamDialog, ptr %5, i32 0, i32 9
  %7 = getelementptr inbounds %struct.tcp_graph, ptr %6, i32 0, i32 1
  %8 = getelementptr inbounds %class.TCPStreamDialog, ptr %5, i32 0, i32 9
  %9 = getelementptr inbounds %struct.tcp_graph, ptr %8, i32 0, i32 3
  %10 = getelementptr inbounds %class.TCPStreamDialog, ptr %5, i32 0, i32 9
  %11 = getelementptr inbounds %struct.tcp_graph, ptr %10, i32 0, i32 2
  %12 = load i16, ptr %11, align 8
  %13 = getelementptr inbounds %class.TCPStreamDialog, ptr %5, i32 0, i32 9
  %14 = getelementptr inbounds %struct.tcp_graph, ptr %13, i32 0, i32 4
  %15 = load i16, ptr %14, align 8
  %16 = load ptr, ptr %4, align 8
  %17 = getelementptr inbounds %struct.segment, ptr %16, i32 0, i32 11
  %18 = load ptr, ptr %4, align 8
  %19 = getelementptr inbounds %struct.segment, ptr %18, i32 0, i32 12
  %20 = load ptr, ptr %4, align 8
  %21 = getelementptr inbounds %struct.segment, ptr %20, i32 0, i32 9
  %22 = load i16, ptr %21, align 8
  %23 = load ptr, ptr %4, align 8
  %24 = getelementptr inbounds %struct.segment, ptr %23, i32 0, i32 10
  %25 = load i16, ptr %24, align 2
  %26 = call i32 @compare_headers(ptr noundef %7, ptr noundef %9, i16 noundef zeroext %12, i16 noundef zeroext %15, ptr noundef %17, ptr noundef %19, i16 noundef zeroext %22, i16 noundef zeroext %25, i32 noundef 0)
  %27 = icmp ne i32 %26, 0
  ret i1 %27
}