; Function Attrs: mustprogress uwtable
define noundef zeroext i1 @_ZN15TCPStreamDialog14compareHeadersEP7segment(ptr noundef nonnull align 8 dereferenceable(584) %0, ptr noundef %1) local_unnamed_addr #2 align 2 {
  %3 = getelementptr inbounds i8, ptr %0, i64 136
  %4 = getelementptr inbounds i8, ptr %0, i64 168
  %5 = getelementptr inbounds i8, ptr %0, i64 160
  %6 = load i16, ptr %5, align 8
  %7 = getelementptr inbounds i8, ptr %0, i64 192
  %8 = load i16, ptr %7, align 8
  %9 = getelementptr inbounds i8, ptr %1, i64 48
  %10 = getelementptr inbounds i8, ptr %1, i64 72
  %11 = getelementptr inbounds i8, ptr %1, i64 40
  %12 = load i16, ptr %11, align 8
  %13 = getelementptr inbounds i8, ptr %1, i64 42
  %14 = load i16, ptr %13, align 2
  %15 = tail call i32 @compare_headers(ptr noundef nonnull %3, ptr noundef nonnull %4, i16 noundef zeroext %6, i16 noundef zeroext %8, ptr noundef nonnull %9, ptr noundef nonnull %10, i16 noundef zeroext %12, i16 noundef zeroext %14, i32 noundef 0)
  %16 = icmp ne i32 %15, 0
  ret i1 %16
}